target datalayout = "e-m:e-p270:32:32-p271:32:32-p272:64:64-i64:64-i128:128-f80:128-n8:16:32:64-S128"
target triple = "x86_64-pc-linux-gnu"

%struct.expert_field = type { i32, i32 }
%struct._packet_info = type { ptr, ptr, i32, i32, %struct.nstime_t, %struct.nstime_t, %struct.nstime_t, i8, ptr, ptr, ptr, ptr, %struct._address, %struct._address, %struct._address, %struct._address, %struct._address, %struct._address, i32, ptr, i8, [3 x i8], %struct.anon, i32, i32, i32, i32, ptr, i8, ptr, ptr, i16, i16, i32, i32, i16, i32, i32, ptr, ptr, ptr, i8, i8, i16, i16, i16, i32, i16, i16, ptr, ptr, ptr, ptr, ptr, i32, i32 }
%struct.nstime_t = type { i64, i32 }
%struct._address = type { i32, i32, ptr, ptr }
%struct.anon = type { i8, [3 x i8] }

@hf_ansi_637_trans_param_id = internal global i32 0, align 4
@hf_ansi_637_trans_length = internal global i32 0, align 4
@ei_ansi_637_unknown_trans_parameter = internal global %struct.expert_field zeroinitializer, align 4
@ei_ansi_637_no_trans_parameter_dissector = internal global %struct.expert_field zeroinitializer, align 4
@ett_ansi_637_trans = internal global i32 0, align 4
@ett_ansi_637_trans_msg = internal global [4 x i32] zeroinitializer, align 16
@ett_ansi_637_trans_param = internal global [10 x i32] zeroinitializer, align 16
@ansi_proto_name_trans = internal global ptr @.str.325, align 8
@proto_ansi_637_trans = internal global i32 0, align 4
@ansi_proto_name_short = internal global ptr @.str.341, align 8
@g_tree = internal global ptr null, align 8
@.str.339 = private unnamed_addr constant [3 x i8] c"%s\00", align 1
@ansi_637_trans_tele_id = internal global i32 0, align 4
@.str.411 = private unnamed_addr constant [52 x i8] c"%s - Unrecognized Transport Layer Message Type (%u)\00", align 1
@.str.412 = private unnamed_addr constant [8 x i8] c"%s - %s\00", align 1
@.str.413 = private unnamed_addr constant [12 x i8] c"(BROADCAST)\00", align 1

; Function Attrs: null_pointer_is_valid sspstrong uwtable
define internal zeroext i1 @dissect_ansi_637_trans_param(ptr noundef %0, ptr noundef %1, ptr noundef %2, ptr noundef %3) #0 {
  %5 = alloca i1, align 1
  %6 = alloca ptr, align 8
  %7 = alloca ptr, align 8
  %8 = alloca ptr, align 8
  %9 = alloca ptr, align 8
  %10 = alloca ptr, align 8
  %11 = alloca i8, align 1
  %12 = alloca i8, align 1
  %13 = alloca i32, align 4
  %14 = alloca i32, align 4
  %15 = alloca i32, align 4
  %16 = alloca ptr, align 8
  %17 = alloca ptr, align 8
  %18 = alloca ptr, align 8
  %19 = alloca i32, align 4
  %20 = alloca ptr, align 8
  store ptr %0, ptr %6, align 8
  store ptr %1, ptr %7, align 8
  store ptr %2, ptr %8, align 8
  store ptr %3, ptr %9, align 8
  call void @llvm.lifetime.start.p0(i64 8, ptr %10) #7
  store ptr null, ptr %10, align 8
  call void @llvm.lifetime.start.p0(i64 1, ptr %11) #7
  call void @llvm.lifetime.start.p0(i64 1, ptr %12) #7
  call void @llvm.lifetime.start.p0(i64 4, ptr %13) #7
  call void @llvm.lifetime.start.p0(i64 4, ptr %14) #7
  call void @llvm.lifetime.start.p0(i64 4, ptr %15) #7
  call void @llvm.lifetime.start.p0(i64 8, ptr %16) #7
  call void @llvm.lifetime.start.p0(i64 8, ptr %17) #7
  call void @llvm.lifetime.start.p0(i64 8, ptr %18) #7
  %21 = load ptr, ptr %9, align 8
  %22 = load i32, ptr %21, align 4
  store i32 %22, ptr %13, align 4
  %23 = load ptr, ptr %6, align 8
  %24 = load i32, ptr %13, align 4
  %25 = call zeroext i8 @tvb_get_uint8(ptr noundef %23, i32 noundef %24)
  store i8 %25, ptr %11, align 1
  %26 = load i8, ptr %11, align 1
  %27 = zext i8 %26 to i32
  %28 = call ptr @try_val_to_str_idx(i32 noundef %27, ptr noundef @ansi_trans_param_strings, ptr noundef %15)
  store ptr %28, ptr %18, align 8
  %29 = load ptr, ptr %18, align 8
  %30 = icmp eq ptr null, %29
  br i1 %30, label %31, label %32

31:                                               ; preds = %4
  store i1 false, ptr %5, align 1
  store i32 1, ptr %19, align 4
  br label %123

32:                                               ; preds = %4
  %33 = load i32, ptr %15, align 4
  %34 = sext i32 %33 to i64
  %35 = getelementptr [10 x i32], ptr @ett_ansi_637_trans_param, i64 0, i64 %34
  %36 = load i32, ptr %35, align 4
  store i32 %36, ptr %14, align 4
  %37 = load i32, ptr %15, align 4
  %38 = sext i32 %37 to i64
  %39 = getelementptr [10 x ptr], ptr @ansi_637_trans_param_fcn, i64 0, i64 %38
  %40 = load ptr, ptr %39, align 8
  store ptr %40, ptr %10, align 8
  %41 = load ptr, ptr %8, align 8
  %42 = load ptr, ptr %6, align 8
  %43 = load i32, ptr %13, align 4
  %44 = load i32, ptr %14, align 4
  %45 = load ptr, ptr %18, align 8
  %46 = call ptr @proto_tree_add_subtree(ptr noundef %41, ptr noundef %42, i32 noundef %43, i32 noundef -1, i32 noundef %44, ptr noundef %17, ptr noundef %45)
  store ptr %46, ptr %16, align 8
  %47 = load ptr, ptr %16, align 8
  %48 = load i32, ptr @hf_ansi_637_trans_param_id, align 4
  %49 = load ptr, ptr %6, align 8
  %50 = load i32, ptr %13, align 4
  %51 = load i8, ptr %11, align 1
  %52 = zext i8 %51 to i32
  %53 = call ptr @proto_tree_add_uint(ptr noundef %47, i32 noundef %48, ptr noundef %49, i32 noundef %50, i32 noundef 1, i32 noundef %52)
  %54 = load i32, ptr %13, align 4
  %55 = add i32 %54, 1
  store i32 %55, ptr %13, align 4
  %56 = load ptr, ptr %6, align 8
  %57 = load i32, ptr %13, align 4
  %58 = call zeroext i8 @tvb_get_uint8(ptr noundef %56, i32 noundef %57)
  store i8 %58, ptr %12, align 1
  %59 = load ptr, ptr %17, align 8
  %60 = load i32, ptr %13, align 4
  %61 = load ptr, ptr %9, align 8
  %62 = load i32, ptr %61, align 4
  %63 = sub i32 %60, %62
  %64 = load i8, ptr %12, align 1
  %65 = zext i8 %64 to i32
  %66 = add i32 %63, %65
  %67 = add i32 %66, 1
  call void @proto_item_set_len(ptr noundef %59, i32 noundef %67)
  %68 = load ptr, ptr %16, align 8
  %69 = load i32, ptr @hf_ansi_637_trans_length, align 4
  %70 = load ptr, ptr %6, align 8
  %71 = load i32, ptr %13, align 4
  %72 = load i8, ptr %12, align 1
  %73 = zext i8 %72 to i32
  %74 = call ptr @proto_tree_add_uint(ptr noundef %68, i32 noundef %69, ptr noundef %70, i32 noundef %71, i32 noundef 1, i32 noundef %73)
  %75 = load i32, ptr %13, align 4
  %76 = add i32 %75, 1
  store i32 %76, ptr %13, align 4
  %77 = load i8, ptr %12, align 1
  %78 = zext i8 %77 to i32
  %79 = icmp sgt i32 %78, 0
  br i1 %79, label %80, label %120

80:                                               ; preds = %32
  %81 = load ptr, ptr %10, align 8
  %82 = icmp eq ptr %81, null
  br i1 %82, label %83, label %91

83:                                               ; preds = %80
  %84 = load ptr, ptr %16, align 8
  %85 = load ptr, ptr %7, align 8
  %86 = load ptr, ptr %6, align 8
  %87 = load i32, ptr %13, align 4
  %88 = load i8, ptr %12, align 1
  %89 = zext i8 %88 to i32
  %90 = call ptr @proto_tree_add_expert(ptr noundef %84, ptr noundef %85, ptr noundef @ei_ansi_637_no_trans_parameter_dissector, ptr noundef %86, i32 noundef %87, i32 noundef %89)
  br label %115

91:                                               ; preds = %80
  call void @llvm.lifetime.start.p0(i64 8, ptr %20) #7
  %92 = load ptr, ptr %7, align 8
  %93 = getelementptr inbounds nuw %struct._packet_info, ptr %92, i32 0, i32 51
  %94 = load ptr, ptr %93, align 8
  %95 = call noalias ptr @wmem_alloc(ptr noundef %94, i64 noundef 1024) #8
  store ptr %95, ptr %20, align 8
  %96 = load ptr, ptr %20, align 8
  %97 = getelementptr i8, ptr %96, i64 0
  store i8 0, ptr %97, align 1
  %98 = load ptr, ptr %10, align 8
  %99 = load ptr, ptr %6, align 8
  %100 = load ptr, ptr %7, align 8
  %101 = load ptr, ptr %16, align 8
  %102 = load i8, ptr %12, align 1
  %103 = zext i8 %102 to i32
  %104 = load i32, ptr %13, align 4
  %105 = load ptr, ptr %20, align 8
  call void %98(ptr noundef %99, ptr noundef %100, ptr noundef %101, i32 noundef %103, i32 noundef %104, ptr noundef %105, i32 noundef 1024)
  %106 = load ptr, ptr %20, align 8
  %107 = getelementptr i8, ptr %106, i64 0
  %108 = load i8, ptr %107, align 1
  %109 = sext i8 %108 to i32
  %110 = icmp ne i32 %109, 0
  br i1 %110, label %111, label %114

111:                                              ; preds = %91
  %112 = load ptr, ptr %17, align 8
  %113 = load ptr, ptr %20, align 8
  call void (ptr, ptr, ...) @proto_item_append_text(ptr noundef %112, ptr noundef @.str.339, ptr noundef %113)
  br label %114

114:                                              ; preds = %111, %91
  call void @llvm.lifetime.end.p0(i64 8, ptr %20) #7
  br label %115

115:                                              ; preds = %114, %83
  %116 = load i8, ptr %12, align 1
  %117 = zext i8 %116 to i32
  %118 = load i32, ptr %13, align 4
  %119 = add i32 %118, %117
  store i32 %119, ptr %13, align 4
  br label %120

120:                                              ; preds = %115, %32
  %121 = load i32, ptr %13, align 4
  %122 = load ptr, ptr %9, align 8
  store i32 %121, ptr %122, align 4
  store i1 true, ptr %5, align 1
  store i32 1, ptr %19, align 4
  br label %123

123:                                              ; preds = %120, %31
  call void @llvm.lifetime.end.p0(i64 8, ptr %18) #7
  call void @llvm.lifetime.end.p0(i64 8, ptr %17) #7
  call void @llvm.lifetime.end.p0(i64 8, ptr %16) #7
  call void @llvm.lifetime.end.p0(i64 4, ptr %15) #7
  call void @llvm.lifetime.end.p0(i64 4, ptr %14) #7
  call void @llvm.lifetime.end.p0(i64 4, ptr %13) #7
  call void @llvm.lifetime.end.p0(i64 1, ptr %12) #7
  call void @llvm.lifetime.end.p0(i64 1, ptr %11) #7
  call void @llvm.lifetime.end.p0(i64 8, ptr %10) #7
  %124 = load i1, ptr %5, align 1
  ret i1 %124
}

; Function Attrs: null_pointer_is_valid sspstrong uwtable
define internal i32 @dissect_ansi_637_trans(ptr noundef %0, ptr noundef %1, ptr noundef %2, ptr noundef %3) #0 {
  %5 = alloca ptr, align 8
  %6 = alloca ptr, align 8
  %7 = alloca ptr, align 8
  %8 = alloca ptr, align 8
  %9 = alloca ptr, align 8
  %10 = alloca ptr, align 8
  %11 = alloca i32, align 4
  %12 = alloca i32, align 4
  %13 = alloca ptr, align 8
  %14 = alloca i8, align 1
  %15 = alloca i8, align 1
  store ptr %0, ptr %5, align 8
  store ptr %1, ptr %6, align 8
  store ptr %2, ptr %7, align 8
  store ptr %3, ptr %8, align 8
  call void @llvm.lifetime.start.p0(i64 8, ptr %9) #7
  call void @llvm.lifetime.start.p0(i64 8, ptr %10) #7
  store ptr null, ptr %10, align 8
  call void @llvm.lifetime.start.p0(i64 4, ptr %11) #7
  call void @llvm.lifetime.start.p0(i64 4, ptr %12) #7
  call void @llvm.lifetime.start.p0(i64 8, ptr %13) #7
  store ptr null, ptr %13, align 8
  call void @llvm.lifetime.start.p0(i64 1, ptr %14) #7
  call void @llvm.lifetime.start.p0(i64 1, ptr %15) #7
  %16 = load ptr, ptr %6, align 8
  %17 = getelementptr inbounds nuw %struct._packet_info, ptr %16, i32 0, i32 1
  %18 = load ptr, ptr %17, align 8
  %19 = load ptr, ptr @ansi_proto_name_short, align 8
  call void @col_set_str(ptr noundef %18, i32 noundef 35, ptr noundef %19)
  %20 = load ptr, ptr %7, align 8
  %21 = icmp ne ptr %20, null
  br i1 %21, label %22, label %90

22:                                               ; preds = %4
  %23 = load ptr, ptr %7, align 8
  store ptr %23, ptr @g_tree, align 8
  store i32 0, ptr @ansi_637_trans_tele_id, align 4
  %24 = load ptr, ptr %5, align 8
  %25 = call zeroext i8 @tvb_get_uint8(ptr noundef %24, i32 noundef 0)
  store i8 %25, ptr %14, align 1
  %26 = load i8, ptr %14, align 1
  %27 = zext i8 %26 to i32
  %28 = call ptr @try_val_to_str_idx(i32 noundef %27, ptr noundef @ansi_trans_msg_type_strings, ptr noundef %12)
  store ptr %28, ptr %13, align 8
  %29 = load ptr, ptr %13, align 8
  %30 = icmp eq ptr null, %29
  br i1 %30, label %31, label %42

31:                                               ; preds = %22
  %32 = load ptr, ptr %7, align 8
  %33 = load i32, ptr @proto_ansi_637_trans, align 4
  %34 = load ptr, ptr %5, align 8
  %35 = load ptr, ptr @ansi_proto_name_trans, align 8
  %36 = load i8, ptr %14, align 1
  %37 = zext i8 %36 to i32
  %38 = call ptr (ptr, i32, ptr, i32, i32, ptr, ...) @proto_tree_add_protocol_format(ptr noundef %32, i32 noundef %33, ptr noundef %34, i32 noundef 0, i32 noundef -1, ptr noundef @.str.411, ptr noundef %35, i32 noundef %37)
  store ptr %38, ptr %9, align 8
  %39 = load ptr, ptr %9, align 8
  %40 = load i32, ptr @ett_ansi_637_trans, align 4
  %41 = call ptr @proto_item_add_subtree(ptr noundef %39, i32 noundef %40)
  store ptr %41, ptr %10, align 8
  br label %63

42:                                               ; preds = %22
  %43 = load ptr, ptr %7, align 8
  %44 = load i32, ptr @proto_ansi_637_trans, align 4
  %45 = load ptr, ptr %5, align 8
  %46 = load ptr, ptr @ansi_proto_name_trans, align 8
  %47 = load ptr, ptr %13, align 8
  %48 = call ptr (ptr, i32, ptr, i32, i32, ptr, ...) @proto_tree_add_protocol_format(ptr noundef %43, i32 noundef %44, ptr noundef %45, i32 noundef 0, i32 noundef -1, ptr noundef @.str.412, ptr noundef %46, ptr noundef %47)
  store ptr %48, ptr %9, align 8
  %49 = load ptr, ptr %9, align 8
  %50 = load i32, ptr %12, align 4
  %51 = sext i32 %50 to i64
  %52 = getelementptr [4 x i32], ptr @ett_ansi_637_trans_msg, i64 0, i64 %51
  %53 = load i32, ptr %52, align 4
  %54 = call ptr @proto_item_add_subtree(ptr noundef %49, i32 noundef %53)
  store ptr %54, ptr %10, align 8
  %55 = load i8, ptr %14, align 1
  %56 = zext i8 %55 to i32
  %57 = icmp eq i32 %56, 1
  br i1 %57, label %58, label %62

58:                                               ; preds = %42
  store i32 65535, ptr @ansi_637_trans_tele_id, align 4
  %59 = load ptr, ptr %6, align 8
  %60 = getelementptr inbounds nuw %struct._packet_info, ptr %59, i32 0, i32 1
  %61 = load ptr, ptr %60, align 8
  call void @col_append_str(ptr noundef %61, i32 noundef 25, ptr noundef @.str.413)
  br label %62

62:                                               ; preds = %58, %42
  br label %63

63:                                               ; preds = %62, %31
  store i32 1, ptr %11, align 4
  %64 = load ptr, ptr %5, align 8
  %65 = call i32 @tvb_reported_length(ptr noundef %64)
  %66 = trunc i32 %65 to i8
  store i8 %66, ptr %15, align 1
  br label %67

67:                                               ; preds = %88, %63
  %68 = load i8, ptr %15, align 1
  %69 = zext i8 %68 to i32
  %70 = load i32, ptr %11, align 4
  %71 = sub i32 %69, %70
  %72 = icmp ugt i32 %71, 0
  br i1 %72, label %73, label %89

73:                                               ; preds = %67
  %74 = load ptr, ptr %5, align 8
  %75 = load ptr, ptr %6, align 8
  %76 = load ptr, ptr %10, align 8
  %77 = call zeroext i1 @dissect_ansi_637_trans_param(ptr noundef %74, ptr noundef %75, ptr noundef %76, ptr noundef %11)
  br i1 %77, label %88, label %78

78:                                               ; preds = %73
  %79 = load ptr, ptr %10, align 8
  %80 = load ptr, ptr %6, align 8
  %81 = load ptr, ptr %5, align 8
  %82 = load i32, ptr %11, align 4
  %83 = load i8, ptr %15, align 1
  %84 = zext i8 %83 to i32
  %85 = load i32, ptr %11, align 4
  %86 = sub i32 %84, %85
  %87 = call ptr @proto_tree_add_expert(ptr noundef %79, ptr noundef %80, ptr noundef @ei_ansi_637_unknown_trans_parameter, ptr noundef %81, i32 noundef %82, i32 noundef %86)
  br label %89

88:                                               ; preds = %73
  br label %67, !llvm.loop !11

89:                                               ; preds = %78, %67
  br label %90

90:                                               ; preds = %89, %4
  %91 = load ptr, ptr %5, align 8
  %92 = call i32 @tvb_captured_length(ptr noundef %91)
  call void @llvm.lifetime.end.p0(i64 1, ptr %15) #7
  call void @llvm.lifetime.end.p0(i64 1, ptr %14) #7
  call void @llvm.lifetime.end.p0(i64 8, ptr %13) #7
  call void @llvm.lifetime.end.p0(i64 4, ptr %12) #7
  call void @llvm.lifetime.end.p0(i64 4, ptr %11) #7
  call void @llvm.lifetime.end.p0(i64 8, ptr %10) #7
  call void @llvm.lifetime.end.p0(i64 8, ptr %9) #7
  ret i32 %92
}