; Function Attrs: null_pointer_is_valid sspstrong uwtable
define internal i32 @dissect_ansi_637_trans(ptr noundef %0, ptr noundef %1, ptr noundef %2, ptr readnone captures(none) %3) #0 {
  %5 = alloca i32, align 4
  %6 = alloca ptr, align 8
  %7 = alloca i32, align 4
  call void @llvm.lifetime.start.p0(i64 4, ptr nonnull %7) #7
  %8 = getelementptr inbounds nuw i8, ptr %1, i64 8
  %9 = load ptr, ptr %8, align 8
  tail call void @col_set_str(ptr noundef %9, i32 noundef 35, ptr noundef nonnull @.str.341)
  %.not = icmp eq ptr %2, null
  br i1 %.not, label %.loopexit, label %10

10:                                               ; preds = %4
  store ptr %2, ptr @g_tree, align 8
  store i32 0, ptr @ansi_637_trans_tele_id, align 4
  %11 = tail call zeroext i8 @tvb_get_uint8(ptr noundef %0, i32 noundef 0)
  %12 = zext i8 %11 to i32
  %13 = call ptr @try_val_to_str_idx(i32 noundef %12, ptr noundef nonnull @ansi_trans_msg_type_strings, ptr noundef nonnull %7)
  %14 = icmp eq ptr %13, null
  %15 = load i32, ptr @proto_ansi_637_trans, align 4
  br i1 %14, label %16, label %20

16:                                               ; preds = %10
  %17 = call ptr (ptr, i32, ptr, i32, i32, ptr, ...) @proto_tree_add_protocol_format(ptr noundef nonnull %2, i32 noundef %15, ptr noundef %0, i32 noundef 0, i32 noundef -1, ptr noundef nonnull @.str.411, ptr noundef nonnull @.str.325, i32 noundef %12)
  %18 = load i32, ptr @ett_ansi_637_trans, align 4
  %19 = call ptr @proto_item_add_subtree(ptr noundef %17, i32 noundef %18)
  br label %30

20:                                               ; preds = %10
  %21 = call ptr (ptr, i32, ptr, i32, i32, ptr, ...) @proto_tree_add_protocol_format(ptr noundef nonnull %2, i32 noundef %15, ptr noundef %0, i32 noundef 0, i32 noundef -1, ptr noundef nonnull @.str.412, ptr noundef nonnull @.str.325, ptr noundef nonnull %13)
  %22 = load i32, ptr %7, align 4
  %23 = sext i32 %22 to i64
  %24 = getelementptr [4 x i32], ptr @ett_ansi_637_trans_msg, i64 0, i64 %23
  %25 = load i32, ptr %24, align 4
  %26 = call ptr @proto_item_add_subtree(ptr noundef %21, i32 noundef %25)
  %27 = icmp eq i8 %11, 1
  br i1 %27, label %28, label %30

28:                                               ; preds = %20
  store i32 65535, ptr @ansi_637_trans_tele_id, align 4
  %29 = load ptr, ptr %8, align 8
  call void @col_append_str(ptr noundef %29, i32 noundef 25, ptr noundef nonnull @.str.413)
  br label %30

30:                                               ; preds = %20, %28, %16
  %.0 = phi ptr [ %19, %16 ], [ %26, %28 ], [ %26, %20 ]
  %31 = call i32 @tvb_reported_length(ptr noundef %0)
  %32 = and i32 %31, 255
  %.not2737 = icmp eq i32 %32, 1
  br i1 %.not2737, label %.loopexit, label %.lr.ph

.lr.ph:                                           ; preds = %30
  %33 = getelementptr inbounds nuw i8, ptr %1, i64 408
  br label %34

34:                                               ; preds = %.lr.ph, %dissect_ansi_637_trans_param.exit
  %.03138 = phi i32 [ 1, %.lr.ph ], [ %.1, %dissect_ansi_637_trans_param.exit ]
  call void @llvm.lifetime.start.p0(i64 4, ptr nonnull %5) #7
  call void @llvm.lifetime.start.p0(i64 8, ptr nonnull %6) #7
  %35 = call zeroext i8 @tvb_get_uint8(ptr noundef %0, i32 noundef %.03138)
  %36 = zext i8 %35 to i32
  %37 = call ptr @try_val_to_str_idx(i32 noundef %36, ptr noundef nonnull @ansi_trans_param_strings, ptr noundef nonnull %5)
  %.not34 = icmp eq ptr %37, null
  br i1 %.not34, label %67, label %38

38:                                               ; preds = %34
  %39 = load i32, ptr %5, align 4
  %40 = sext i32 %39 to i64
  %41 = getelementptr [10 x i32], ptr @ett_ansi_637_trans_param, i64 0, i64 %40
  %42 = load i32, ptr %41, align 4
  %43 = getelementptr [10 x ptr], ptr @ansi_637_trans_param_fcn, i64 0, i64 %40
  %44 = load ptr, ptr %43, align 8
  %45 = call ptr @proto_tree_add_subtree(ptr noundef %.0, ptr noundef %0, i32 noundef %.03138, i32 noundef -1, i32 noundef %42, ptr noundef nonnull %6, ptr noundef nonnull %37)
  %46 = load i32, ptr @hf_ansi_637_trans_param_id, align 4
  %47 = call ptr @proto_tree_add_uint(ptr noundef %45, i32 noundef %46, ptr noundef %0, i32 noundef %.03138, i32 noundef 1, i32 noundef %36)
  %48 = add i32 %.03138, 1
  %49 = call zeroext i8 @tvb_get_uint8(ptr noundef %0, i32 noundef %48)
  %50 = load ptr, ptr %6, align 8
  %51 = zext i8 %49 to i32
  %52 = add i32 %.03138, 2
  %53 = add i32 %52, %51
  %54 = sub i32 %53, %.03138
  call void @proto_item_set_len(ptr noundef %50, i32 noundef %54)
  %55 = load i32, ptr @hf_ansi_637_trans_length, align 4
  %56 = call ptr @proto_tree_add_uint(ptr noundef %45, i32 noundef %55, ptr noundef %0, i32 noundef %48, i32 noundef 1, i32 noundef %51)
  %.not.i = icmp eq i8 %49, 0
  br i1 %.not.i, label %dissect_ansi_637_trans_param.exit, label %57

57:                                               ; preds = %38
  %58 = icmp eq i32 %39, 9
  br i1 %58, label %59, label %61

59:                                               ; preds = %57
  %60 = call ptr @proto_tree_add_expert(ptr noundef %45, ptr noundef %1, ptr noundef nonnull @ei_ansi_637_no_trans_parameter_dissector, ptr noundef %0, i32 noundef %52, i32 noundef %51)
  br label %dissect_ansi_637_trans_param.exit

61:                                               ; preds = %57
  %62 = load ptr, ptr %33, align 8
  %63 = call noalias dereferenceable_or_null(1024) ptr @wmem_alloc(ptr noundef %62, i64 noundef 1024) #8
  store i8 0, ptr %63, align 1
  call void %44(ptr noundef %0, ptr noundef %1, ptr noundef %45, i32 noundef %51, i32 noundef %52, ptr noundef %63, i32 noundef 1024)
  %64 = load i8, ptr %63, align 1
  %.not51.i = icmp eq i8 %64, 0
  br i1 %.not51.i, label %dissect_ansi_637_trans_param.exit, label %65

65:                                               ; preds = %61
  %66 = load ptr, ptr %6, align 8
  call void (ptr, ptr, ...) @proto_item_append_text(ptr noundef %66, ptr noundef nonnull @.str.339, ptr noundef %63)
  br label %dissect_ansi_637_trans_param.exit

dissect_ansi_637_trans_param.exit:                ; preds = %38, %59, %61, %65
  %.1 = phi i32 [ %52, %38 ], [ %53, %61 ], [ %53, %65 ], [ %53, %59 ]
  call void @llvm.lifetime.end.p0(i64 8, ptr nonnull %6) #7
  call void @llvm.lifetime.end.p0(i64 4, ptr nonnull %5) #7
  %.not27 = icmp eq i32 %32, %.1
  br i1 %.not27, label %.loopexit, label %34, !llvm.loop !12

67:                                               ; preds = %34
  call void @llvm.lifetime.end.p0(i64 8, ptr nonnull %6) #7
  call void @llvm.lifetime.end.p0(i64 4, ptr nonnull %5) #7
  %68 = sub i32 %32, %.03138
  %69 = call ptr @proto_tree_add_expert(ptr noundef %.0, ptr noundef %1, ptr noundef nonnull @ei_ansi_637_unknown_trans_parameter, ptr noundef %0, i32 noundef %.03138, i32 noundef %68)
  br label %.loopexit

.loopexit:                                        ; preds = %dissect_ansi_637_trans_param.exit, %30, %67, %4
  %70 = call i32 @tvb_captured_length(ptr noundef %0)
  call void @llvm.lifetime.end.p0(i64 4, ptr nonnull %7) #7
  ret i32 %70
}